#include <math.h>
#include <stdio.h>
#include <stdlib.h>
#include <string.h>

int main()
{
	char a[110];
	int i,j,l;
	while(scanf("%s",a)==1)
	{
		printf("%s\n",a);
		l=strlen(a);
		for(i=0;i<l;i++)
		{
			if(a[i]!='('&&a[i]!=')') a[i]=' ';
		}
		for(i=1;i<l;i++)
		{
			if(a[i]==')')
			{
				for(j=i-1;j>=0;j--)
				{
					if(a[j]=='(')
					{
						a[i]=' ';
						a[j]=' ';
						break;
					}
				}
			}
		}
		for(i=0;i<l;i++)
		{
			if(a[i]=='(') printf("$");
			if(a[i]==')') printf("?");
			if(a[i]==' ') printf(" ");
		}
		printf("\n");
	}
	return 0;
}
